; ModuleID = 'source-C-CXX/53/280.c'
source_filename = "source-C-CXX/53/280.c"
target datalayout = "e-m:e-p270:32:32-p271:32:32-p272:64:64-i64:64-f80:128-n8:16:32:64-S128"
target triple = "x86_64-pc-linux-gnu"

@.str = private unnamed_addr constant [5 x i8] c"%d%d\00", align 1
@.str.1 = private unnamed_addr constant [3 x i8] c"%d\00", align 1

; Function Attrs: nofree nounwind sspstrong uwtable
define dso_local void @main() local_unnamed_addr #0 {
  %1 = alloca i32, align 4
  %2 = alloca i32, align 4
  %3 = bitcast i32* %1 to i8*
  call void @llvm.lifetime.start.p0i8(i64 4, i8* nonnull %3) #3
  %4 = bitcast i32* %2 to i8*
  call void @llvm.lifetime.start.p0i8(i64 4, i8* nonnull %4) #3
  %5 = call i32 (i8*, ...) @__isoc99_scanf(i8* getelementptr inbounds ([5 x i8], [5 x i8]* @.str, i64 0, i64 0), i32* nonnull %1, i32* nonnull %2)
  %6 = load i32, i32* %1, align 4, !tbaa !5
  %7 = icmp eq i32 %6, 2
  br i1 %7, label %31, label %8

8:                                                ; preds = %0
  %9 = add nsw i32 %6, -1
  %10 = load i32, i32* %2, align 4
  %11 = icmp sgt i32 %6, 1
  br i1 %11, label %12, label %27

12:                                               ; preds = %8, %12
  %13 = phi i32 [ %25, %12 ], [ undef, %8 ]
  %14 = phi i32 [ %24, %12 ], [ 1, %8 ]
  %15 = phi i32 [ %23, %12 ], [ 1, %8 ]
  %16 = mul nsw i32 %13, %6
  %17 = add nsw i32 %10, %16
  %18 = srem i32 %17, %9
  %19 = sdiv i32 %17, %9
  %20 = icmp eq i32 %18, 0
  %21 = add nsw i32 %14, 1
  %22 = add nsw i32 %15, 1
  %23 = select i1 %20, i32 %15, i32 %22
  %24 = select i1 %20, i32 %21, i32 1
  %25 = select i1 %20, i32 %19, i32 %22
  %26 = icmp slt i32 %24, %6
  br i1 %26, label %12, label %27, !llvm.loop !9

27:                                               ; preds = %12, %8
  %28 = phi i32 [ undef, %8 ], [ %25, %12 ]
  %29 = mul nsw i32 %28, %6
  %30 = add nsw i32 %10, %29
  br label %31

31:                                               ; preds = %0, %27
  %32 = phi i32 [ %30, %27 ], [ 7, %0 ]
  %33 = call i32 (i8*, ...) @printf(i8* nonnull dereferenceable(1) getelementptr inbounds ([3 x i8], [3 x i8]* @.str.1, i64 0, i64 0), i32 %32)
  call void @llvm.lifetime.end.p0i8(i64 4, i8* nonnull %4) #3
  call void @llvm.lifetime.end.p0i8(i64 4, i8* nonnull %3) #3
  ret void
}

; Function Attrs: argmemonly mustprogress nofree nosync nounwind willreturn
declare void @llvm.lifetime.start.p0i8(i64 immarg, i8* nocapture) #1

; Function Attrs: nofree nounwind
declare noundef i32 @__isoc99_scanf(i8* nocapture noundef readonly, ...) local_unnamed_addr #2

; Function Attrs: nofree nounwind
declare noundef i32 @printf(i8* nocapture noundef readonly, ...) local_unnamed_addr #2

; Function Attrs: argmemonly mustprogress nofree nosync nounwind willreturn
declare void @llvm.lifetime.end.p0i8(i64 immarg, i8* nocapture) #1


!llvm.module.flags = !{!0, !1, !2, !3}
!llvm.ident = !{!4}

!0 = !{i32 1, !"wchar_size", i32 4}
!1 = !{i32 7, !"PIC Level", i32 2}
!2 = !{i32 7, !"PIE Level", i32 2}
!3 = !{i32 7, !"uwtable", i32 1}
!4 = !{!"clang version 13.0.0"}
!5 = !{!6, !6, i64 0}
!6 = !{!"int", !7, i64 0}
!7 = !{!"omnipotent char", !8, i64 0}
!8 = !{!"Simple C/C++ TBAA"}
!9 = distinct !{!9, !10}
!10 = !{!"llvm.loop.mustprogress"}
